
dist/Release/production/AVR-Dx_App_Example.X.production.elf:     file format elf32-avr

Sections:
Idx Name          Size      VMA       LMA       File off  Algn
  0 .data         00000000  00804000  00804000  0000017a  2**0
                  CONTENTS, ALLOC, LOAD, DATA
  1 .text         00000126  00000400  00000400  00000054  2**1
                  CONTENTS, ALLOC, LOAD, READONLY, CODE
  2 .comment      00000030  00000000  00000000  0000017a  2**0
                  CONTENTS, READONLY
  3 .note.gnu.avr.deviceinfo 00000040  00000000  00000000  000001ac  2**2
                  CONTENTS, READONLY
  4 .debug_info   00002e84  00000000  00000000  000001ec  2**0
                  CONTENTS, READONLY, DEBUGGING
  5 .debug_abbrev 00002c0e  00000000  00000000  00003070  2**0
                  CONTENTS, READONLY, DEBUGGING
  6 .debug_line   000001f9  00000000  00000000  00005c7e  2**0
                  CONTENTS, READONLY, DEBUGGING
  7 .debug_str    00001434  00000000  00000000  00005e77  2**0
                  CONTENTS, READONLY, DEBUGGING

Disassembly of section .text:

00000400 <__vectors>:
 400:	0c 94 76 02 	jmp	0x4ec	; 0x4ec <__ctors_end>
 404:	0c 94 80 02 	jmp	0x500	; 0x500 <__bad_interrupt>
 408:	0c 94 80 02 	jmp	0x500	; 0x500 <__bad_interrupt>
 40c:	0c 94 80 02 	jmp	0x500	; 0x500 <__bad_interrupt>
 410:	0c 94 80 02 	jmp	0x500	; 0x500 <__bad_interrupt>
 414:	0c 94 80 02 	jmp	0x500	; 0x500 <__bad_interrupt>
 418:	0c 94 80 02 	jmp	0x500	; 0x500 <__bad_interrupt>
 41c:	0c 94 80 02 	jmp	0x500	; 0x500 <__bad_interrupt>
 420:	0c 94 80 02 	jmp	0x500	; 0x500 <__bad_interrupt>
 424:	0c 94 80 02 	jmp	0x500	; 0x500 <__bad_interrupt>
 428:	0c 94 80 02 	jmp	0x500	; 0x500 <__bad_interrupt>
 42c:	0c 94 80 02 	jmp	0x500	; 0x500 <__bad_interrupt>
 430:	0c 94 80 02 	jmp	0x500	; 0x500 <__bad_interrupt>
 434:	0c 94 80 02 	jmp	0x500	; 0x500 <__bad_interrupt>
 438:	0c 94 80 02 	jmp	0x500	; 0x500 <__bad_interrupt>
 43c:	0c 94 80 02 	jmp	0x500	; 0x500 <__bad_interrupt>
 440:	0c 94 80 02 	jmp	0x500	; 0x500 <__bad_interrupt>
 444:	0c 94 80 02 	jmp	0x500	; 0x500 <__bad_interrupt>
 448:	0c 94 80 02 	jmp	0x500	; 0x500 <__bad_interrupt>
 44c:	0c 94 80 02 	jmp	0x500	; 0x500 <__bad_interrupt>
 450:	0c 94 80 02 	jmp	0x500	; 0x500 <__bad_interrupt>
 454:	0c 94 80 02 	jmp	0x500	; 0x500 <__bad_interrupt>
 458:	0c 94 80 02 	jmp	0x500	; 0x500 <__bad_interrupt>
 45c:	0c 94 80 02 	jmp	0x500	; 0x500 <__bad_interrupt>
 460:	0c 94 80 02 	jmp	0x500	; 0x500 <__bad_interrupt>
 464:	0c 94 80 02 	jmp	0x500	; 0x500 <__bad_interrupt>
 468:	0c 94 80 02 	jmp	0x500	; 0x500 <__bad_interrupt>
 46c:	0c 94 80 02 	jmp	0x500	; 0x500 <__bad_interrupt>
 470:	0c 94 80 02 	jmp	0x500	; 0x500 <__bad_interrupt>
 474:	0c 94 80 02 	jmp	0x500	; 0x500 <__bad_interrupt>
 478:	0c 94 80 02 	jmp	0x500	; 0x500 <__bad_interrupt>
 47c:	0c 94 80 02 	jmp	0x500	; 0x500 <__bad_interrupt>
 480:	0c 94 80 02 	jmp	0x500	; 0x500 <__bad_interrupt>
 484:	0c 94 80 02 	jmp	0x500	; 0x500 <__bad_interrupt>
 488:	0c 94 80 02 	jmp	0x500	; 0x500 <__bad_interrupt>
 48c:	0c 94 80 02 	jmp	0x500	; 0x500 <__bad_interrupt>
 490:	0c 94 80 02 	jmp	0x500	; 0x500 <__bad_interrupt>
 494:	0c 94 80 02 	jmp	0x500	; 0x500 <__bad_interrupt>
 498:	0c 94 80 02 	jmp	0x500	; 0x500 <__bad_interrupt>
 49c:	0c 94 80 02 	jmp	0x500	; 0x500 <__bad_interrupt>
 4a0:	0c 94 80 02 	jmp	0x500	; 0x500 <__bad_interrupt>
 4a4:	0c 94 80 02 	jmp	0x500	; 0x500 <__bad_interrupt>
 4a8:	0c 94 80 02 	jmp	0x500	; 0x500 <__bad_interrupt>
 4ac:	0c 94 80 02 	jmp	0x500	; 0x500 <__bad_interrupt>
 4b0:	0c 94 80 02 	jmp	0x500	; 0x500 <__bad_interrupt>
 4b4:	0c 94 80 02 	jmp	0x500	; 0x500 <__bad_interrupt>
 4b8:	0c 94 80 02 	jmp	0x500	; 0x500 <__bad_interrupt>
 4bc:	0c 94 80 02 	jmp	0x500	; 0x500 <__bad_interrupt>
 4c0:	0c 94 80 02 	jmp	0x500	; 0x500 <__bad_interrupt>
 4c4:	0c 94 80 02 	jmp	0x500	; 0x500 <__bad_interrupt>
 4c8:	0c 94 80 02 	jmp	0x500	; 0x500 <__bad_interrupt>
 4cc:	0c 94 80 02 	jmp	0x500	; 0x500 <__bad_interrupt>
 4d0:	0c 94 80 02 	jmp	0x500	; 0x500 <__bad_interrupt>
 4d4:	0c 94 80 02 	jmp	0x500	; 0x500 <__bad_interrupt>
 4d8:	0c 94 80 02 	jmp	0x500	; 0x500 <__bad_interrupt>
 4dc:	0c 94 80 02 	jmp	0x500	; 0x500 <__bad_interrupt>
 4e0:	0c 94 80 02 	jmp	0x500	; 0x500 <__bad_interrupt>
 4e4:	0c 94 80 02 	jmp	0x500	; 0x500 <__bad_interrupt>
 4e8:	0c 94 80 02 	jmp	0x500	; 0x500 <__bad_interrupt>

000004ec <__ctors_end>:
 4ec:	11 24       	eor	r1, r1
 4ee:	1f be       	out	0x3f, r1	; 63
 4f0:	cf ef       	ldi	r28, 0xFF	; 255
 4f2:	cd bf       	out	0x3d, r28	; 61
 4f4:	df e7       	ldi	r29, 0x7F	; 127
 4f6:	de bf       	out	0x3e, r29	; 62
 4f8:	0e 94 82 02 	call	0x504	; 0x504 <main>
 4fc:	0c 94 91 02 	jmp	0x522	; 0x522 <_exit>

00000500 <__bad_interrupt>:
 500:	0c 94 00 02 	jmp	0x400	; 0x400 <__vectors>

00000504 <main>:
 504:	46 9a       	sbi	0x08, 6	; 8
 506:	90 e4       	ldi	r25, 0x40	; 64
 508:	89 b1       	in	r24, 0x09	; 9
 50a:	89 27       	eor	r24, r25
 50c:	89 b9       	out	0x09, r24	; 9
 50e:	2f e7       	ldi	r18, 0x7F	; 127
 510:	38 e3       	ldi	r19, 0x38	; 56
 512:	81 e0       	ldi	r24, 0x01	; 1
 514:	21 50       	subi	r18, 0x01	; 1
 516:	30 40       	sbci	r19, 0x00	; 0
 518:	80 40       	sbci	r24, 0x00	; 0
 51a:	e1 f7       	brne	.-8      	; 0x514 <main+0x10>
 51c:	00 c0       	rjmp	.+0      	; 0x51e <main+0x1a>
 51e:	00 00       	nop
 520:	f3 cf       	rjmp	.-26     	; 0x508 <main+0x4>

00000522 <_exit>:
 522:	f8 94       	cli

00000524 <__stop_program>:
 524:	ff cf       	rjmp	.-2      	; 0x524 <__stop_program>
