
dist/Release/production/avr128da48-cnano-avr-da-bootloader.X.production.elf:     file format elf32-avr

Sections:
Idx Name          Size      VMA       LMA       File off  Algn
  0 .data         00000000  00804000  00804000  00000421  2**0
                  CONTENTS, ALLOC, LOAD, DATA
  1 .text         00000384  00000000  00000000  00000094  2**1
                  CONTENTS, ALLOC, LOAD, READONLY, CODE
  2 .bss          00000090  00804000  00804000  00000418  2**0
                  ALLOC
  3 .fuse         00000009  00820000  00820000  00000418  2**0
                  CONTENTS, ALLOC, LOAD, DATA
  4 .comment      00000030  00000000  00000000  00000421  2**0
                  CONTENTS, READONLY

Disassembly of section .text:

00000000 <boot>:
   0:	11 24       	eor	r1, r1
   2:	46 9a       	sbi	0x08, 6	; 8
   4:	4e 9a       	sbi	0x09, 6	; 9
   6:	57 9b       	sbis	0x0a, 7	; 10
   8:	0a c0       	rjmp	.+20     	; 0x1e <__MPLAB_BUILD+0x1d>
   a:	4e 98       	cbi	0x09, 6	; 9
   c:	82 e0       	ldi	r24, 0x02	; 2
   e:	80 93 01 10 	sts	0x1001, r24	; 0x801001 <__TEXT_REGION_LENGTH__+0x701001>
  12:	60 e0       	ldi	r22, 0x00	; 0
  14:	72 e0       	ldi	r23, 0x02	; 2
  16:	80 e0       	ldi	r24, 0x00	; 0
  18:	90 e0       	ldi	r25, 0x00	; 0
  1a:	0e 94 b8 01 	call	0x370	; 0x370 <pgm_jmp_far>
  1e:	0e 94 19 00 	call	0x32	; 0x32 <bootloader>

00000022 <__ctors_end>:
  22:	20 e4       	ldi	r18, 0x40	; 64
  24:	a0 e0       	ldi	r26, 0x00	; 0
  26:	b0 e4       	ldi	r27, 0x40	; 64
  28:	01 c0       	rjmp	.+2      	; 0x2c <.do_clear_bss_start>

0000002a <.do_clear_bss_loop>:
  2a:	1d 92       	st	X+, r1

0000002c <.do_clear_bss_start>:
  2c:	a0 39       	cpi	r26, 0x90	; 144
  2e:	b2 07       	cpc	r27, r18
  30:	e1 f7       	brne	.-8      	; 0x2a <.do_clear_bss_loop>

00000032 <bootloader>:
  32:	41 98       	cbi	0x08, 1	; 8
  34:	40 9a       	sbi	0x08, 0	; 8
  36:	e0 e2       	ldi	r30, 0x20	; 32
  38:	f8 e0       	ldi	r31, 0x08	; 8
  3a:	83 e8       	ldi	r24, 0x83	; 131
  3c:	96 e0       	ldi	r25, 0x06	; 6
  3e:	80 87       	std	Z+8, r24	; 0x08
  40:	91 87       	std	Z+9, r25	; 0x09
  42:	83 e0       	ldi	r24, 0x03	; 3
  44:	87 83       	std	Z+7, r24	; 0x07
  46:	86 81       	ldd	r24, Z+6	; 0x06
  48:	80 6c       	ori	r24, 0xC0	; 192
  4a:	86 83       	std	Z+6, r24	; 0x06
  4c:	10 92 8f 40 	sts	0x408F, r1	; 0x80408f <boot_state>
  50:	e1 2c       	mov	r14, r1
  52:	f1 2c       	mov	r15, r1
  54:	c0 e2       	ldi	r28, 0x20	; 32
  56:	d8 e0       	ldi	r29, 0x08	; 8
  58:	00 e0       	ldi	r16, 0x00	; 0
  5a:	10 e1       	ldi	r17, 0x10	; 16
  5c:	68 94       	set
  5e:	22 24       	eor	r2, r2
  60:	23 f8       	bld	r2, 3
  62:	68 94       	set
  64:	33 24       	eor	r3, r3
  66:	31 f8       	bld	r3, 1
  68:	0f 2e       	mov	r0, r31
  6a:	fa e0       	ldi	r31, 0x0A	; 10
  6c:	cf 2e       	mov	r12, r31
  6e:	f0 e4       	ldi	r31, 0x40	; 64
  70:	df 2e       	mov	r13, r31
  72:	f0 2d       	mov	r31, r0
  74:	0f 2e       	mov	r0, r31
  76:	ff e4       	ldi	r31, 0x4F	; 79
  78:	8f 2e       	mov	r8, r31
  7a:	f6 e4       	ldi	r31, 0x46	; 70
  7c:	9f 2e       	mov	r9, r31
  7e:	fe e4       	ldi	r31, 0x4E	; 78
  80:	af 2e       	mov	r10, r31
  82:	f9 e4       	ldi	r31, 0x49	; 73
  84:	bf 2e       	mov	r11, r31
  86:	f0 2d       	mov	r31, r0
  88:	41 2c       	mov	r4, r1
  8a:	51 2c       	mov	r5, r1
  8c:	32 01       	movw	r6, r4
  8e:	68 94       	set
  90:	42 f8       	bld	r4, 2
  92:	90 91 8f 40 	lds	r25, 0x408F	; 0x80408f <boot_state>
  96:	94 30       	cpi	r25, 0x04	; 4
  98:	30 f4       	brcc	.+12     	; 0xa6 <__SREG__+0x67>
  9a:	8c 81       	ldd	r24, Y+4	; 0x04
  9c:	88 23       	and	r24, r24
  9e:	ec f7       	brge	.-6      	; 0x9a <__SREG__+0x5b>
  a0:	88 81       	ld	r24, Y
  a2:	80 93 8a 40 	sts	0x408A, r24	; 0x80408a <rx_data>
  a6:	92 30       	cpi	r25, 0x02	; 2
  a8:	09 f4       	brne	.+2      	; 0xac <__SREG__+0x6d>
  aa:	82 c0       	rjmp	.+260    	; 0x1b0 <__SREG__+0x171>
  ac:	28 f4       	brcc	.+10     	; 0xb8 <__SREG__+0x79>
  ae:	99 23       	and	r25, r25
  b0:	51 f0       	breq	.+20     	; 0xc6 <__SREG__+0x87>
  b2:	91 30       	cpi	r25, 0x01	; 1
  b4:	e1 f1       	breq	.+120    	; 0x12e <__SREG__+0xef>
  b6:	55 c1       	rjmp	.+682    	; 0x362 <__SREG__+0x323>
  b8:	93 30       	cpi	r25, 0x03	; 3
  ba:	09 f4       	brne	.+2      	; 0xbe <__SREG__+0x7f>
  bc:	be c0       	rjmp	.+380    	; 0x23a <__SREG__+0x1fb>
  be:	94 30       	cpi	r25, 0x04	; 4
  c0:	09 f4       	brne	.+2      	; 0xc4 <__SREG__+0x85>
  c2:	44 c1       	rjmp	.+648    	; 0x34c <__SREG__+0x30d>
  c4:	4e c1       	rjmp	.+668    	; 0x362 <__SREG__+0x323>
  c6:	80 91 8b 40 	lds	r24, 0x408B	; 0x80408b <current_mark>
  ca:	90 91 8c 40 	lds	r25, 0x408C	; 0x80408c <current_mark+0x1>
  ce:	a0 91 8d 40 	lds	r26, 0x408D	; 0x80408d <current_mark+0x2>
  d2:	b0 91 8e 40 	lds	r27, 0x408E	; 0x80408e <current_mark+0x3>
  d6:	ba 2f       	mov	r27, r26
  d8:	a9 2f       	mov	r26, r25
  da:	98 2f       	mov	r25, r24
  dc:	88 27       	eor	r24, r24
  de:	20 91 8a 40 	lds	r18, 0x408A	; 0x80408a <rx_data>
  e2:	82 2b       	or	r24, r18
  e4:	80 93 8b 40 	sts	0x408B, r24	; 0x80408b <current_mark>
  e8:	90 93 8c 40 	sts	0x408C, r25	; 0x80408c <current_mark+0x1>
  ec:	a0 93 8d 40 	sts	0x408D, r26	; 0x80408d <current_mark+0x2>
  f0:	b0 93 8e 40 	sts	0x408E, r27	; 0x80408e <current_mark+0x3>
  f4:	8f 34       	cpi	r24, 0x4F	; 79
  f6:	96 44       	sbci	r25, 0x46	; 70
  f8:	ae 44       	sbci	r26, 0x4E	; 78
  fa:	b9 44       	sbci	r27, 0x49	; 73
  fc:	09 f0       	breq	.+2      	; 0x100 <__SREG__+0xc1>
  fe:	31 c1       	rjmp	.+610    	; 0x362 <__SREG__+0x323>
 100:	81 e0       	ldi	r24, 0x01	; 1
 102:	80 93 8f 40 	sts	0x408F, r24	; 0x80408f <boot_state>
 106:	f6 01       	movw	r30, r12
 108:	80 82       	st	Z, r8
 10a:	91 82       	std	Z+1, r9	; 0x01
 10c:	a2 82       	std	Z+2, r10	; 0x02
 10e:	b3 82       	std	Z+3, r11	; 0x03
 110:	8e e0       	ldi	r24, 0x0E	; 14
 112:	90 e4       	ldi	r25, 0x40	; 64
 114:	80 93 00 40 	sts	0x4000, r24	; 0x804000 <_edata>
 118:	90 93 01 40 	sts	0x4001, r25	; 0x804001 <_edata+0x1>
 11c:	40 92 06 40 	sts	0x4006, r4	; 0x804006 <cnt>
 120:	50 92 07 40 	sts	0x4007, r5	; 0x804007 <cnt+0x1>
 124:	60 92 08 40 	sts	0x4008, r6	; 0x804008 <cnt+0x2>
 128:	70 92 09 40 	sts	0x4009, r7	; 0x804009 <cnt+0x3>
 12c:	1a c1       	rjmp	.+564    	; 0x362 <__SREG__+0x323>
 12e:	e0 91 00 40 	lds	r30, 0x4000	; 0x804000 <_edata>
 132:	f0 91 01 40 	lds	r31, 0x4001	; 0x804001 <_edata+0x1>
 136:	80 91 8a 40 	lds	r24, 0x408A	; 0x80408a <rx_data>
 13a:	80 83       	st	Z, r24
 13c:	80 91 00 40 	lds	r24, 0x4000	; 0x804000 <_edata>
 140:	90 91 01 40 	lds	r25, 0x4001	; 0x804001 <_edata+0x1>
 144:	01 96       	adiw	r24, 0x01	; 1
 146:	80 93 00 40 	sts	0x4000, r24	; 0x804000 <_edata>
 14a:	90 93 01 40 	sts	0x4001, r25	; 0x804001 <_edata+0x1>
 14e:	80 91 06 40 	lds	r24, 0x4006	; 0x804006 <cnt>
 152:	90 91 07 40 	lds	r25, 0x4007	; 0x804007 <cnt+0x1>
 156:	a0 91 08 40 	lds	r26, 0x4008	; 0x804008 <cnt+0x2>
 15a:	b0 91 09 40 	lds	r27, 0x4009	; 0x804009 <cnt+0x3>
 15e:	01 96       	adiw	r24, 0x01	; 1
 160:	a1 1d       	adc	r26, r1
 162:	b1 1d       	adc	r27, r1
 164:	80 93 06 40 	sts	0x4006, r24	; 0x804006 <cnt>
 168:	90 93 07 40 	sts	0x4007, r25	; 0x804007 <cnt+0x1>
 16c:	a0 93 08 40 	sts	0x4008, r26	; 0x804008 <cnt+0x2>
 170:	b0 93 09 40 	sts	0x4009, r27	; 0x804009 <cnt+0x3>
 174:	80 38       	cpi	r24, 0x80	; 128
 176:	91 05       	cpc	r25, r1
 178:	a1 05       	cpc	r26, r1
 17a:	b1 05       	cpc	r27, r1
 17c:	09 f0       	breq	.+2      	; 0x180 <__SREG__+0x141>
 17e:	f1 c0       	rjmp	.+482    	; 0x362 <__SREG__+0x323>
 180:	30 92 8f 40 	sts	0x408F, r3	; 0x80408f <boot_state>
 184:	10 92 06 40 	sts	0x4006, r1	; 0x804006 <cnt>
 188:	10 92 07 40 	sts	0x4007, r1	; 0x804007 <cnt+0x1>
 18c:	10 92 08 40 	sts	0x4008, r1	; 0x804008 <cnt+0x2>
 190:	10 92 09 40 	sts	0x4009, r1	; 0x804009 <cnt+0x3>
 194:	f6 01       	movw	r30, r12
 196:	84 81       	ldd	r24, Z+4	; 0x04
 198:	95 81       	ldd	r25, Z+5	; 0x05
 19a:	a6 81       	ldd	r26, Z+6	; 0x06
 19c:	b7 81       	ldd	r27, Z+7	; 0x07
 19e:	80 93 02 40 	sts	0x4002, r24	; 0x804002 <flash_addr>
 1a2:	90 93 03 40 	sts	0x4003, r25	; 0x804003 <flash_addr+0x1>
 1a6:	a0 93 04 40 	sts	0x4004, r26	; 0x804004 <flash_addr+0x2>
 1aa:	b0 93 05 40 	sts	0x4005, r27	; 0x804005 <flash_addr+0x3>
 1ae:	d9 c0       	rjmp	.+434    	; 0x362 <__SREG__+0x323>
 1b0:	80 91 8b 40 	lds	r24, 0x408B	; 0x80408b <current_mark>
 1b4:	90 91 8c 40 	lds	r25, 0x408C	; 0x80408c <current_mark+0x1>
 1b8:	a0 91 8d 40 	lds	r26, 0x408D	; 0x80408d <current_mark+0x2>
 1bc:	b0 91 8e 40 	lds	r27, 0x408E	; 0x80408e <current_mark+0x3>
 1c0:	ba 2f       	mov	r27, r26
 1c2:	a9 2f       	mov	r26, r25
 1c4:	98 2f       	mov	r25, r24
 1c6:	88 27       	eor	r24, r24
 1c8:	20 91 8a 40 	lds	r18, 0x408A	; 0x80408a <rx_data>
 1cc:	82 2b       	or	r24, r18
 1ce:	80 93 8b 40 	sts	0x408B, r24	; 0x80408b <current_mark>
 1d2:	90 93 8c 40 	sts	0x408C, r25	; 0x80408c <current_mark+0x1>
 1d6:	a0 93 8d 40 	sts	0x408D, r26	; 0x80408d <current_mark+0x2>
 1da:	b0 93 8e 40 	sts	0x408E, r27	; 0x80408e <current_mark+0x3>
 1de:	40 91 06 40 	lds	r20, 0x4006	; 0x804006 <cnt>
 1e2:	50 91 07 40 	lds	r21, 0x4007	; 0x804007 <cnt+0x1>
 1e6:	60 91 08 40 	lds	r22, 0x4008	; 0x804008 <cnt+0x2>
 1ea:	70 91 09 40 	lds	r23, 0x4009	; 0x804009 <cnt+0x3>
 1ee:	4f 5f       	subi	r20, 0xFF	; 255
 1f0:	5f 4f       	sbci	r21, 0xFF	; 255
 1f2:	6f 4f       	sbci	r22, 0xFF	; 255
 1f4:	7f 4f       	sbci	r23, 0xFF	; 255
 1f6:	40 93 06 40 	sts	0x4006, r20	; 0x804006 <cnt>
 1fa:	50 93 07 40 	sts	0x4007, r21	; 0x804007 <cnt+0x1>
 1fe:	60 93 08 40 	sts	0x4008, r22	; 0x804008 <cnt+0x2>
 202:	70 93 09 40 	sts	0x4009, r23	; 0x804009 <cnt+0x3>
 206:	80 33       	cpi	r24, 0x30	; 48
 208:	98 45       	sbci	r25, 0x58	; 88
 20a:	a4 45       	sbci	r26, 0x54	; 84
 20c:	b3 45       	sbci	r27, 0x53	; 83
 20e:	61 f4       	brne	.+24     	; 0x228 <__SREG__+0x1e9>
 210:	23 e0       	ldi	r18, 0x03	; 3
 212:	20 93 8f 40 	sts	0x408F, r18	; 0x80408f <boot_state>
 216:	10 92 06 40 	sts	0x4006, r1	; 0x804006 <cnt>
 21a:	10 92 07 40 	sts	0x4007, r1	; 0x804007 <cnt+0x1>
 21e:	10 92 08 40 	sts	0x4008, r1	; 0x804008 <cnt+0x2>
 222:	10 92 09 40 	sts	0x4009, r1	; 0x804009 <cnt+0x3>
 226:	9d c0       	rjmp	.+314    	; 0x362 <__SREG__+0x323>
 228:	45 30       	cpi	r20, 0x05	; 5
 22a:	51 05       	cpc	r21, r1
 22c:	61 05       	cpc	r22, r1
 22e:	71 05       	cpc	r23, r1
 230:	08 f4       	brcc	.+2      	; 0x234 <__SREG__+0x1f5>
 232:	97 c0       	rjmp	.+302    	; 0x362 <__SREG__+0x323>
 234:	10 92 8f 40 	sts	0x408F, r1	; 0x80408f <boot_state>
 238:	94 c0       	rjmp	.+296    	; 0x362 <__SREG__+0x323>
 23a:	80 91 06 40 	lds	r24, 0x4006	; 0x804006 <cnt>
 23e:	90 91 07 40 	lds	r25, 0x4007	; 0x804007 <cnt+0x1>
 242:	a0 91 08 40 	lds	r26, 0x4008	; 0x804008 <cnt+0x2>
 246:	b0 91 09 40 	lds	r27, 0x4009	; 0x804009 <cnt+0x3>
 24a:	91 70       	andi	r25, 0x01	; 1
 24c:	aa 27       	eor	r26, r26
 24e:	bb 27       	eor	r27, r27
 250:	89 2b       	or	r24, r25
 252:	8a 2b       	or	r24, r26
 254:	8b 2b       	or	r24, r27
 256:	31 f5       	brne	.+76     	; 0x2a4 <__SREG__+0x265>
 258:	f8 01       	movw	r30, r16
 25a:	82 81       	ldd	r24, Z+2	; 0x02
 25c:	83 70       	andi	r24, 0x03	; 3
 25e:	e1 f7       	brne	.-8      	; 0x258 <__SREG__+0x219>
 260:	fd e9       	ldi	r31, 0x9D	; 157
 262:	f4 bf       	out	0x34, r31	; 52
 264:	80 93 00 10 	sts	0x1000, r24	; 0x801000 <__TEXT_REGION_LENGTH__+0x701000>
 268:	f4 bf       	out	0x34, r31	; 52
 26a:	20 92 00 10 	sts	0x1000, r2	; 0x801000 <__TEXT_REGION_LENGTH__+0x701000>
 26e:	60 91 02 40 	lds	r22, 0x4002	; 0x804002 <flash_addr>
 272:	70 91 03 40 	lds	r23, 0x4003	; 0x804003 <flash_addr+0x1>
 276:	80 91 04 40 	lds	r24, 0x4004	; 0x804004 <flash_addr+0x2>
 27a:	90 91 05 40 	lds	r25, 0x4005	; 0x804005 <flash_addr+0x3>
 27e:	40 e0       	ldi	r20, 0x00	; 0
 280:	50 e0       	ldi	r21, 0x00	; 0
 282:	0e 94 bc 01 	call	0x378	; 0x378 <pgm_word_write>
 286:	f8 01       	movw	r30, r16
 288:	82 81       	ldd	r24, Z+2	; 0x02
 28a:	83 70       	andi	r24, 0x03	; 3
 28c:	e1 f7       	brne	.-8      	; 0x286 <__SREG__+0x247>
 28e:	fd e9       	ldi	r31, 0x9D	; 157
 290:	f4 bf       	out	0x34, r31	; 52
 292:	80 93 00 10 	sts	0x1000, r24	; 0x801000 <__TEXT_REGION_LENGTH__+0x701000>
 296:	89 b1       	in	r24, 0x09	; 9
 298:	20 e4       	ldi	r18, 0x40	; 64
 29a:	82 27       	eor	r24, r18
 29c:	89 b9       	out	0x09, r24	; 9
 29e:	f4 bf       	out	0x34, r31	; 52
 2a0:	30 92 00 10 	sts	0x1000, r3	; 0x801000 <__TEXT_REGION_LENGTH__+0x701000>
 2a4:	80 91 02 40 	lds	r24, 0x4002	; 0x804002 <flash_addr>
 2a8:	90 91 03 40 	lds	r25, 0x4003	; 0x804003 <flash_addr+0x1>
 2ac:	a0 91 04 40 	lds	r26, 0x4004	; 0x804004 <flash_addr+0x2>
 2b0:	b0 91 05 40 	lds	r27, 0x4005	; 0x804005 <flash_addr+0x3>
 2b4:	80 fd       	sbrc	r24, 0
 2b6:	04 c0       	rjmp	.+8      	; 0x2c0 <__SREG__+0x281>
 2b8:	e0 90 8a 40 	lds	r14, 0x408A	; 0x80408a <rx_data>
 2bc:	f1 2c       	mov	r15, r1
 2be:	12 c0       	rjmp	.+36     	; 0x2e4 <__SREG__+0x2a5>
 2c0:	80 91 8a 40 	lds	r24, 0x408A	; 0x80408a <rx_data>
 2c4:	f8 2a       	or	r15, r24
 2c6:	80 91 02 40 	lds	r24, 0x4002	; 0x804002 <flash_addr>
 2ca:	90 91 03 40 	lds	r25, 0x4003	; 0x804003 <flash_addr+0x1>
 2ce:	a0 91 04 40 	lds	r26, 0x4004	; 0x804004 <flash_addr+0x2>
 2d2:	b0 91 05 40 	lds	r27, 0x4005	; 0x804005 <flash_addr+0x3>
 2d6:	bc 01       	movw	r22, r24
 2d8:	cd 01       	movw	r24, r26
 2da:	6e 7f       	andi	r22, 0xFE	; 254
 2dc:	99 27       	eor	r25, r25
 2de:	a7 01       	movw	r20, r14
 2e0:	0e 94 bc 01 	call	0x378	; 0x378 <pgm_word_write>
 2e4:	80 91 02 40 	lds	r24, 0x4002	; 0x804002 <flash_addr>
 2e8:	90 91 03 40 	lds	r25, 0x4003	; 0x804003 <flash_addr+0x1>
 2ec:	a0 91 04 40 	lds	r26, 0x4004	; 0x804004 <flash_addr+0x2>
 2f0:	b0 91 05 40 	lds	r27, 0x4005	; 0x804005 <flash_addr+0x3>
 2f4:	01 96       	adiw	r24, 0x01	; 1
 2f6:	a1 1d       	adc	r26, r1
 2f8:	b1 1d       	adc	r27, r1
 2fa:	80 93 02 40 	sts	0x4002, r24	; 0x804002 <flash_addr>
 2fe:	90 93 03 40 	sts	0x4003, r25	; 0x804003 <flash_addr+0x1>
 302:	a0 93 04 40 	sts	0x4004, r26	; 0x804004 <flash_addr+0x2>
 306:	b0 93 05 40 	sts	0x4005, r27	; 0x804005 <flash_addr+0x3>
 30a:	80 91 06 40 	lds	r24, 0x4006	; 0x804006 <cnt>
 30e:	90 91 07 40 	lds	r25, 0x4007	; 0x804007 <cnt+0x1>
 312:	a0 91 08 40 	lds	r26, 0x4008	; 0x804008 <cnt+0x2>
 316:	b0 91 09 40 	lds	r27, 0x4009	; 0x804009 <cnt+0x3>
 31a:	01 96       	adiw	r24, 0x01	; 1
 31c:	a1 1d       	adc	r26, r1
 31e:	b1 1d       	adc	r27, r1
 320:	80 93 06 40 	sts	0x4006, r24	; 0x804006 <cnt>
 324:	90 93 07 40 	sts	0x4007, r25	; 0x804007 <cnt+0x1>
 328:	a0 93 08 40 	sts	0x4008, r26	; 0x804008 <cnt+0x2>
 32c:	b0 93 09 40 	sts	0x4009, r27	; 0x804009 <cnt+0x3>
 330:	f6 01       	movw	r30, r12
 332:	40 85       	ldd	r20, Z+8	; 0x08
 334:	51 85       	ldd	r21, Z+9	; 0x09
 336:	62 85       	ldd	r22, Z+10	; 0x0a
 338:	73 85       	ldd	r23, Z+11	; 0x0b
 33a:	84 17       	cp	r24, r20
 33c:	95 07       	cpc	r25, r21
 33e:	a6 07       	cpc	r26, r22
 340:	b7 07       	cpc	r27, r23
 342:	79 f4       	brne	.+30     	; 0x362 <__SREG__+0x323>
 344:	84 e0       	ldi	r24, 0x04	; 4
 346:	80 93 8f 40 	sts	0x408F, r24	; 0x80408f <boot_state>
 34a:	0b c0       	rjmp	.+22     	; 0x362 <__SREG__+0x323>
 34c:	8f e4       	ldi	r24, 0x4F	; 79
 34e:	93 ec       	ldi	r25, 0xC3	; 195
 350:	01 97       	sbiw	r24, 0x01	; 1
 352:	f1 f7       	brne	.-4      	; 0x350 <__SREG__+0x311>
 354:	00 c0       	rjmp	.+0      	; 0x356 <__SREG__+0x317>
 356:	00 00       	nop
 358:	91 e0       	ldi	r25, 0x01	; 1
 35a:	88 ed       	ldi	r24, 0xD8	; 216
 35c:	84 bf       	out	0x34, r24	; 52
 35e:	90 93 41 00 	sts	0x0041, r25	; 0x800041 <__TEXT_REGION_LENGTH__+0x700041>
 362:	90 91 8a 40 	lds	r25, 0x408A	; 0x80408a <rx_data>
 366:	8c 81       	ldd	r24, Y+4	; 0x04
 368:	85 ff       	sbrs	r24, 5
 36a:	fd cf       	rjmp	.-6      	; 0x366 <__SREG__+0x327>
 36c:	9a 83       	std	Y+2, r25	; 0x02
 36e:	91 ce       	rjmp	.-734    	; 0x92 <__SREG__+0x53>

00000370 <pgm_jmp_far>:
 370:	fb 01       	movw	r30, r22
 372:	8b bf       	out	0x3b, r24	; 59
 374:	09 94       	ijmp
 376:	08 95       	ret

00000378 <pgm_word_write>:
 378:	0a 01       	movw	r0, r20
 37a:	fb 01       	movw	r30, r22
 37c:	8b bf       	out	0x3b, r24	; 59
 37e:	e8 95       	spm
 380:	11 24       	eor	r1, r1
 382:	08 95       	ret
